target datalayout = "e-m:e-p270:32:32-p271:32:32-p272:64:64-i64:64-i128:128-f80:128-n8:16:32:64-S128"
target triple = "x86_64-pc-linux-gnu"

@Gia_FileNameGenericAppend.Buffer = internal global [1000 x i8] zeroinitializer, align 16

; Function Attrs: nounwind uwtable
define ptr @Gia_FileNameGenericAppend(ptr noundef %0, ptr noundef %1) #0 {
  %3 = alloca ptr, align 8
  %4 = alloca ptr, align 8
  %5 = alloca ptr, align 8
  %6 = alloca ptr, align 8
  store ptr %0, ptr %4, align 8
  store ptr %1, ptr %5, align 8
  %7 = load ptr, ptr %4, align 8
  %8 = call ptr @strcpy(ptr noundef @Gia_FileNameGenericAppend.Buffer, ptr noundef %7) #11
  %9 = call ptr @strrchr(ptr noundef @Gia_FileNameGenericAppend.Buffer, i32 noundef 46) #12
  store ptr %9, ptr %6, align 8
  %10 = icmp ne ptr %9, null
  br i1 %10, label %11, label %13

11:                                               ; preds = %2
  %12 = load ptr, ptr %6, align 8
  store i8 0, ptr %12, align 1
  br label %13

13:                                               ; preds = %11, %2
  %14 = load ptr, ptr %5, align 8
  %15 = call ptr @strcat(ptr noundef @Gia_FileNameGenericAppend.Buffer, ptr noundef %14) #11
  %16 = call ptr @strrchr(ptr noundef @Gia_FileNameGenericAppend.Buffer, i32 noundef 92) #12
  store ptr %16, ptr %6, align 8
  %17 = icmp ne ptr %16, null
  br i1 %17, label %21, label %18

18:                                               ; preds = %13
  %19 = call ptr @strrchr(ptr noundef @Gia_FileNameGenericAppend.Buffer, i32 noundef 47) #12
  store ptr %19, ptr %6, align 8
  %20 = icmp ne ptr %19, null
  br i1 %20, label %21, label %24

21:                                               ; preds = %18, %13
  %22 = load ptr, ptr %6, align 8
  %23 = getelementptr inbounds i8, ptr %22, i64 1
  store ptr %23, ptr %3, align 8
  br label %25

24:                                               ; preds = %18
  store ptr @Gia_FileNameGenericAppend.Buffer, ptr %3, align 8
  br label %25

25:                                               ; preds = %24, %21
  %26 = load ptr, ptr %3, align 8
  ret ptr %26
}