; Function Attrs: mustprogress nofree nounwind willreturn memory(readwrite, inaccessiblemem: none) uwtable
define nonnull ptr @Gia_FileNameGenericAppend(ptr noundef readonly captures(none) %0, ptr noundef readonly captures(none) %1) local_unnamed_addr #6 {
  %3 = tail call ptr @strcpy(ptr noundef nonnull dereferenceable(1) @Gia_FileNameGenericAppend.Buffer, ptr noundef nonnull dereferenceable(1) %0) #36
  %4 = tail call ptr @strrchr(ptr noundef nonnull dereferenceable(1) @Gia_FileNameGenericAppend.Buffer, i32 noundef 46) #37
  %.not = icmp eq ptr %4, null
  br i1 %.not, label %6, label %5

5:                                                ; preds = %2
  store i8 0, ptr %4, align 1
  br label %6

6:                                                ; preds = %5, %2
  %7 = tail call ptr @strcat(ptr noundef nonnull dereferenceable(1) @Gia_FileNameGenericAppend.Buffer, ptr noundef nonnull dereferenceable(1) %1) #36
  %8 = tail call ptr @strrchr(ptr noundef nonnull dereferenceable(1) @Gia_FileNameGenericAppend.Buffer, i32 noundef 92) #37
  %.not9 = icmp eq ptr %8, null
  br i1 %.not9, label %9, label %11

9:                                                ; preds = %6
  %10 = tail call ptr @strrchr(ptr noundef nonnull dereferenceable(1) @Gia_FileNameGenericAppend.Buffer, i32 noundef 47) #37
  %.not10 = icmp eq ptr %10, null
  br i1 %.not10, label %13, label %11

11:                                               ; preds = %9, %6
  %.0 = phi ptr [ %8, %6 ], [ %10, %9 ]
  %12 = getelementptr inbounds nuw i8, ptr %.0, i64 1
  br label %13

13:                                               ; preds = %9, %11
  %.05 = phi ptr [ %12, %11 ], [ @Gia_FileNameGenericAppend.Buffer, %9 ]
  ret ptr %.05
}